#include <math.h>
#include <stdio.h>
#include <stdlib.h>
#include <string.h>

char br[1000][8],jl[1000][8];
int main(){
   int i,n,m,j;
   double a,b,c,d,sum=0.0;
   scanf("%d",&n);
   for (i=0;i<n;i++){
	   scanf("%d",&m);
	   a=1.0,b=2.0;
	   for (j=0;j<m;j++){
		   c=b/a;
		   sum+=c;
           d=b;
		   b=b+a;
		   a=d;
	   }
	   printf("%.3lf\n",sum);
	   sum=0.0;
   }
	return 0;
}
